(dp0
S'attributes'
p1
(dp2
sS'token'
p3
S'a83498e7965380659200da95874d2d3e'
p4
sS'identifier'
p5
S'julien.quintard'
p6
sS'type'
p7
S'contributor'
p8
sS'members'
p9
(lp10
(dp11
S'name'
p12
S'Julien Quintard'
p13
sS'email'
p14
S'julien.quintard@gmail.com'
p15
sas.